; Function Attrs: null_pointer_is_valid sspstrong uwtable
define hidden range(i32 0, 6) i32 @cf_comment_types(ptr noundef readonly captures(none) %0) local_unnamed_addr #1 {
  %2 = alloca ptr, align 8
  %3 = getelementptr inbounds nuw i8, ptr %0, i64 224
  %4 = load ptr, ptr %3, align 8
  %5 = tail call i32 @wtap_file_get_num_shbs(ptr noundef %4)
  %.not16 = icmp eq i32 %5, 0
  br i1 %.not16, label %._crit_edge, label %.lr.ph

6:                                                ; preds = %.lr.ph
  %7 = add nuw i32 %.01113, 1
  %8 = load ptr, ptr %3, align 8
  %9 = call i32 @wtap_file_get_num_shbs(ptr noundef %8)
  %10 = icmp ult i32 %7, %9
  br i1 %10, label %.lr.ph, label %._crit_edge, !llvm.loop !56

.lr.ph:                                           ; preds = %1, %6
  %.01113 = phi i32 [ %7, %6 ], [ 0, %1 ]
  call void @llvm.lifetime.start.p0(i64 8, ptr nonnull %2) #23
  %11 = load ptr, ptr %3, align 8
  %12 = call ptr @wtap_file_get_shb(ptr noundef %11, i32 noundef %.01113)
  %13 = call i32 @wtap_block_get_nth_string_option_value(ptr noundef %12, i32 noundef 1, i32 noundef 0, ptr noundef nonnull %2)
  %.not = icmp eq i32 %13, 0
  call void @llvm.lifetime.end.p0(i64 8, ptr nonnull %2) #23
  br i1 %.not, label %._crit_edge, label %6

._crit_edge:                                      ; preds = %.lr.ph, %6, %1
  %.1 = phi i32 [ 0, %1 ], [ 0, %6 ], [ 1, %.lr.ph ]
  %14 = getelementptr inbounds nuw i8, ptr %0, i64 80
  %15 = load i64, ptr %14, align 8
  %.not12 = icmp eq i64 %15, 0
  %16 = or disjoint i32 %.1, 4
  %spec.select = select i1 %.not12, i32 %.1, i32 %16
  ret i32 %spec.select
}